#include <math.h>
#include <stdio.h>
#include <stdlib.h>
#include <string.h>

int main ()
{
	int m,a,i;
	int sushu(int m);
	int jishu(int m);
	scanf("%d",&m);
	for(i=1;i<=(m/2);i++)
	{
		if(sushu(i)&&jishu(i))
		{
			a=m-i;
			if(sushu(a)&&jishu(a))
				printf("%d %d\n",i,a);
		}
	}
	return 0;
}
int sushu(int m)
{
	int t,c,k;
	k=sqrt(m);
	for(t=2;t<=k;t++)
		if(m%t==0)break;
		if(t>k) c=1;
		else c=0;
		if(m<3)
			c=0;
		return(c);
}
int jishu(int m)
{
    int d;
    if(m%2==0)
		d=0;
	else
		d=1;
	return(d);
}
